; Function Attrs: nounwind uwtable
define dso_local ptr @defragStreamConsumer(ptr noundef readonly captures(none) %0, ptr noundef %1) #0 {
  %3 = alloca %struct.PendingEntryContext, align 8
  %4 = getelementptr inbounds nuw i8, ptr %0, i64 24
  %5 = load ptr, ptr %4, align 8, !tbaa !110
  %6 = tail call i32 @je_get_defrag_hint(ptr noundef %5) #10
  %.not.i = icmp eq i32 %6, 0
  br i1 %.not.i, label %7, label %10

7:                                                ; preds = %2
  %8 = load i64, ptr getelementptr inbounds nuw (i8, ptr @server, i64 2592), align 8, !tbaa !5
  %9 = add nsw i64 %8, 1
  store i64 %9, ptr getelementptr inbounds nuw (i8, ptr @server, i64 2592), align 8, !tbaa !5
  br label %activeDefragAlloc.exit

10:                                               ; preds = %2
  %11 = tail call i64 @je_malloc_usable_size(ptr noundef %5) #10
  %12 = tail call noalias ptr @zmalloc_no_tcache(i64 noundef %11) #10
  tail call void @llvm.memcpy.p0.p0.i64(ptr align 1 %12, ptr align 1 %5, i64 %11, i1 false)
  tail call void @zfree_no_tcache(ptr noundef %5) #10
  %13 = load i64, ptr getelementptr inbounds nuw (i8, ptr @server, i64 2584), align 8, !tbaa !38
  %14 = add nsw i64 %13, 1
  store i64 %14, ptr getelementptr inbounds nuw (i8, ptr @server, i64 2584), align 8, !tbaa !38
  br label %activeDefragAlloc.exit

activeDefragAlloc.exit:                           ; preds = %7, %10
  %.0.i = phi ptr [ %12, %10 ], [ null, %7 ]
  %.not = icmp eq ptr %.0.i, null
  %spec.select = select i1 %.not, ptr %5, ptr %.0.i
  %15 = getelementptr inbounds nuw i8, ptr %spec.select, i64 16
  %16 = load ptr, ptr %15, align 8, !tbaa !127
  %17 = tail call ptr @sdsAllocPtr(ptr noundef %16) #10
  %18 = tail call i32 @je_get_defrag_hint(ptr noundef %17) #10
  %.not.i.i = icmp eq i32 %18, 0
  br i1 %.not.i.i, label %activeDefragSds.exit.thread, label %activeDefragSds.exit

activeDefragSds.exit.thread:                      ; preds = %activeDefragAlloc.exit
  %19 = load i64, ptr getelementptr inbounds nuw (i8, ptr @server, i64 2592), align 8, !tbaa !5
  %20 = add nsw i64 %19, 1
  store i64 %20, ptr getelementptr inbounds nuw (i8, ptr @server, i64 2592), align 8, !tbaa !5
  br label %30

activeDefragSds.exit:                             ; preds = %activeDefragAlloc.exit
  %21 = tail call i64 @je_malloc_usable_size(ptr noundef %17) #10
  %22 = tail call noalias ptr @zmalloc_no_tcache(i64 noundef %21) #10
  tail call void @llvm.memcpy.p0.p0.i64(ptr align 1 %22, ptr align 1 %17, i64 %21, i1 false)
  tail call void @zfree_no_tcache(ptr noundef %17) #10
  %23 = load i64, ptr getelementptr inbounds nuw (i8, ptr @server, i64 2584), align 8, !tbaa !38
  %24 = add nsw i64 %23, 1
  store i64 %24, ptr getelementptr inbounds nuw (i8, ptr @server, i64 2584), align 8, !tbaa !38
  %.not1620 = icmp eq ptr %22, null
  br i1 %.not1620, label %30, label %25

25:                                               ; preds = %activeDefragSds.exit
  %26 = ptrtoint ptr %16 to i64
  %27 = ptrtoint ptr %17 to i64
  %28 = sub i64 %26, %27
  %29 = getelementptr inbounds nuw i8, ptr %22, i64 %28
  store ptr %29, ptr %15, align 8, !tbaa !127
  br label %30

30:                                               ; preds = %activeDefragSds.exit.thread, %25, %activeDefragSds.exit
  %31 = getelementptr inbounds nuw i8, ptr %spec.select, i64 24
  %32 = load ptr, ptr %31, align 8, !tbaa !129
  %.not17 = icmp eq ptr %32, null
  br i1 %.not17, label %35, label %33

33:                                               ; preds = %30
  call void @llvm.lifetime.start.p0(i64 16, ptr nonnull %3) #10
  store ptr %1, ptr %3, align 8, !tbaa !123
  %34 = getelementptr inbounds nuw i8, ptr %3, i64 8
  store ptr %spec.select, ptr %34, align 8, !tbaa !117
  call void @defragRadixTree(ptr noundef nonnull %31, i32 noundef 0, ptr noundef nonnull @defragStreamConsumerPendingEntry, ptr noundef nonnull %3)
  call void @llvm.lifetime.end.p0(i64 16, ptr nonnull %3) #10
  br label %35

35:                                               ; preds = %33, %30
  ret ptr %.0.i
}